target datalayout = "e-m:e-p270:32:32-p271:32:32-p272:64:64-i64:64-i128:128-f80:128-n8:16:32:64-S128"
target triple = "x86_64-pc-linux-gnu"

%struct.HeapTupleData = type { i32, %struct.ItemPointerData, i32, ptr }
%struct.ItemPointerData = type { %struct.BlockIdData, i16 }
%struct.BlockIdData = type { i16, i16 }

@.str.1 = private unnamed_addr constant [18 x i8] c"walsummaryfuncs.c\00", align 1
@.str.2 = private unnamed_addr constant [31 x i8] c"return type must be a row type\00", align 1
@__func__.pg_get_wal_summarizer_state = private unnamed_addr constant [28 x i8] c"pg_get_wal_summarizer_state\00", align 1

; Function Attrs: inlinehint nounwind uwtable
define internal i64 @HeapTupleGetDatum(ptr noundef %0) #5 {
  %2 = alloca ptr, align 8
  store ptr %0, ptr %2, align 8
  %3 = load ptr, ptr %2, align 8
  %4 = getelementptr inbounds nuw %struct.HeapTupleData, ptr %3, i32 0, i32 3
  %5 = load ptr, ptr %4, align 8
  %6 = call i64 @HeapTupleHeaderGetDatum(ptr noundef %5)
  ret i64 %6
}

; Function Attrs: inlinehint nounwind uwtable
define internal i64 @Int32GetDatum(i32 noundef %0) #5 {
  %2 = alloca i32, align 4
  store i32 %0, ptr %2, align 4
  %3 = load i32, ptr %2, align 4
  %4 = sext i32 %3 to i64
  ret i64 %4
}

; Function Attrs: inlinehint nounwind uwtable
define internal i64 @LSNGetDatum(i64 noundef %0) #5 {
  %2 = alloca i64, align 8
  store i64 %0, ptr %2, align 8
  %3 = load i64, ptr %2, align 8
  %4 = call i64 @Int64GetDatum(i64 noundef %3)
  ret i64 %4
}

; Function Attrs: inlinehint nounwind uwtable
define internal i64 @Int64GetDatum(i64 noundef %0) #5 {
  %2 = alloca i64, align 8
  store i64 %0, ptr %2, align 8
  %3 = load i64, ptr %2, align 8
  ret i64 %3
}

; Function Attrs: nounwind uwtable
define dso_local i64 @pg_get_wal_summarizer_state(ptr noundef %0) #0 {
  %2 = alloca ptr, align 8
  %3 = alloca [4 x i64], align 16
  %4 = alloca [4 x i8], align 1
  %5 = alloca i32, align 4
  %6 = alloca i64, align 8
  %7 = alloca i64, align 8
  %8 = alloca i32, align 4
  %9 = alloca ptr, align 8
  %10 = alloca ptr, align 8
  store ptr %0, ptr %2, align 8
  call void @llvm.lifetime.start.p0(i64 32, ptr %3) #7
  call void @llvm.lifetime.start.p0(i64 4, ptr %4) #7
  call void @llvm.lifetime.start.p0(i64 4, ptr %5) #7
  call void @llvm.lifetime.start.p0(i64 8, ptr %6) #7
  call void @llvm.lifetime.start.p0(i64 8, ptr %7) #7
  call void @llvm.lifetime.start.p0(i64 4, ptr %8) #7
  call void @llvm.lifetime.start.p0(i64 8, ptr %9) #7
  call void @llvm.lifetime.start.p0(i64 8, ptr %10) #7
  call void @GetWalSummarizerState(ptr noundef %5, ptr noundef %6, ptr noundef %7, ptr noundef %8)
  %11 = load ptr, ptr %2, align 8
  %12 = call i32 @get_call_result_type(ptr noundef %11, ptr noundef null, ptr noundef %9)
  %13 = icmp ne i32 %12, 1
  br i1 %13, label %14, label %25

14:                                               ; preds = %1
  br label %15

15:                                               ; preds = %14
  br i1 true, label %16, label %18

16:                                               ; preds = %15
  %17 = call zeroext i1 @errstart_cold(i32 noundef 21, ptr noundef null) #8
  br i1 %17, label %20, label %22

18:                                               ; preds = %15
  %19 = call zeroext i1 @errstart(i32 noundef 21, ptr noundef null)
  br i1 %19, label %20, label %22

20:                                               ; preds = %18, %16
  %21 = call i32 (ptr, ...) @errmsg_internal(ptr noundef @.str.2)
  call void @errfinish(ptr noundef @.str.1, i32 noundef 192, ptr noundef @__func__.pg_get_wal_summarizer_state)
  br label %22

22:                                               ; preds = %20, %18, %16
  unreachable

23:                                               ; No predecessors!
  br label %24

24:                                               ; preds = %23
  br label %25

25:                                               ; preds = %24, %1
  %26 = getelementptr inbounds [4 x i8], ptr %4, i64 0, i64 0
  call void @llvm.memset.p0.i64(ptr align 1 %26, i8 0, i64 4, i1 false)
  %27 = load i32, ptr %5, align 4
  %28 = zext i32 %27 to i64
  %29 = call i64 @Int64GetDatum(i64 noundef %28)
  %30 = getelementptr inbounds [4 x i64], ptr %3, i64 0, i64 0
  store i64 %29, ptr %30, align 16
  %31 = load i64, ptr %6, align 8
  %32 = call i64 @LSNGetDatum(i64 noundef %31)
  %33 = getelementptr inbounds [4 x i64], ptr %3, i64 0, i64 1
  store i64 %32, ptr %33, align 8
  %34 = load i64, ptr %7, align 8
  %35 = call i64 @LSNGetDatum(i64 noundef %34)
  %36 = getelementptr inbounds [4 x i64], ptr %3, i64 0, i64 2
  store i64 %35, ptr %36, align 16
  %37 = load i32, ptr %8, align 4
  %38 = icmp slt i32 %37, 0
  br i1 %38, label %39, label %41

39:                                               ; preds = %25
  %40 = getelementptr inbounds [4 x i8], ptr %4, i64 0, i64 3
  store i8 1, ptr %40, align 1
  br label %45

41:                                               ; preds = %25
  %42 = load i32, ptr %8, align 4
  %43 = call i64 @Int32GetDatum(i32 noundef %42)
  %44 = getelementptr inbounds [4 x i64], ptr %3, i64 0, i64 3
  store i64 %43, ptr %44, align 8
  br label %45

45:                                               ; preds = %41, %39
  %46 = load ptr, ptr %9, align 8
  %47 = getelementptr inbounds [4 x i64], ptr %3, i64 0, i64 0
  %48 = getelementptr inbounds [4 x i8], ptr %4, i64 0, i64 0
  %49 = call ptr @heap_form_tuple(ptr noundef %46, ptr noundef %47, ptr noundef %48)
  store ptr %49, ptr %10, align 8
  %50 = load ptr, ptr %10, align 8
  %51 = call i64 @HeapTupleGetDatum(ptr noundef %50)
  call void @llvm.lifetime.end.p0(i64 8, ptr %10) #7
  call void @llvm.lifetime.end.p0(i64 8, ptr %9) #7
  call void @llvm.lifetime.end.p0(i64 4, ptr %8) #7
  call void @llvm.lifetime.end.p0(i64 8, ptr %7) #7
  call void @llvm.lifetime.end.p0(i64 8, ptr %6) #7
  call void @llvm.lifetime.end.p0(i64 4, ptr %5) #7
  call void @llvm.lifetime.end.p0(i64 4, ptr %4) #7
  call void @llvm.lifetime.end.p0(i64 32, ptr %3) #7
  ret i64 %51
}