; Function Attrs: nounwind uwtable
define dso_local i64 @pg_get_wal_summarizer_state(ptr noundef %0) local_unnamed_addr #0 {
  %2 = alloca [4 x i64], align 16
  %3 = alloca [4 x i8], align 4
  %4 = alloca i32, align 4
  %5 = alloca i64, align 8
  %6 = alloca i64, align 8
  %7 = alloca i32, align 4
  %8 = alloca ptr, align 8
  call void @llvm.lifetime.start.p0(i64 32, ptr nonnull %2) #6
  call void @llvm.lifetime.start.p0(i64 4, ptr nonnull %3) #6
  call void @llvm.lifetime.start.p0(i64 4, ptr nonnull %4) #6
  call void @llvm.lifetime.start.p0(i64 8, ptr nonnull %5) #6
  call void @llvm.lifetime.start.p0(i64 8, ptr nonnull %6) #6
  call void @llvm.lifetime.start.p0(i64 4, ptr nonnull %7) #6
  call void @llvm.lifetime.start.p0(i64 8, ptr nonnull %8) #6
  call void @GetWalSummarizerState(ptr noundef nonnull %4, ptr noundef nonnull %5, ptr noundef nonnull %6, ptr noundef nonnull %7) #6
  %9 = call i32 @get_call_result_type(ptr noundef %0, ptr noundef null, ptr noundef nonnull %8) #6
  %.not = icmp eq i32 %9, 1
  br i1 %.not, label %13, label %10

10:                                               ; preds = %1
  %11 = call zeroext i1 @errstart_cold(i32 noundef 21, ptr noundef null) #7
  call void @llvm.assume(i1 %11)
  %12 = call i32 (ptr, ...) @errmsg_internal(ptr noundef nonnull @.str.2) #6
  call void @errfinish(ptr noundef nonnull @.str.1, i32 noundef 192, ptr noundef nonnull @__func__.pg_get_wal_summarizer_state) #6
  unreachable

13:                                               ; preds = %1
  store i32 0, ptr %3, align 4
  %14 = load i32, ptr %4, align 4
  %15 = zext i32 %14 to i64
  store i64 %15, ptr %2, align 16
  %16 = load i64, ptr %5, align 8
  %17 = getelementptr inbounds nuw i8, ptr %2, i64 8
  store i64 %16, ptr %17, align 8
  %18 = load i64, ptr %6, align 8
  %19 = getelementptr inbounds nuw i8, ptr %2, i64 16
  store i64 %18, ptr %19, align 16
  %20 = load i32, ptr %7, align 4
  %21 = icmp slt i32 %20, 0
  br i1 %21, label %22, label %24

22:                                               ; preds = %13
  %23 = getelementptr inbounds nuw i8, ptr %3, i64 3
  store i8 1, ptr %23, align 1
  br label %27

24:                                               ; preds = %13
  %25 = zext nneg i32 %20 to i64
  %26 = getelementptr inbounds nuw i8, ptr %2, i64 24
  store i64 %25, ptr %26, align 8
  br label %27

27:                                               ; preds = %24, %22
  %28 = load ptr, ptr %8, align 8
  %29 = call ptr @heap_form_tuple(ptr noundef %28, ptr noundef nonnull %2, ptr noundef nonnull %3) #6
  %30 = getelementptr i8, ptr %29, i64 16
  %.val = load ptr, ptr %30, align 8
  %31 = call i64 @HeapTupleHeaderGetDatum(ptr noundef %.val) #6
  call void @llvm.lifetime.end.p0(i64 8, ptr nonnull %8) #6
  call void @llvm.lifetime.end.p0(i64 4, ptr nonnull %7) #6
  call void @llvm.lifetime.end.p0(i64 8, ptr nonnull %6) #6
  call void @llvm.lifetime.end.p0(i64 8, ptr nonnull %5) #6
  call void @llvm.lifetime.end.p0(i64 4, ptr nonnull %4) #6
  call void @llvm.lifetime.end.p0(i64 4, ptr nonnull %3) #6
  call void @llvm.lifetime.end.p0(i64 32, ptr nonnull %2) #6
  ret i64 %31
}